Certificate:
    Data:
        Version: 3 (0x2)
        Serial Number: 1016146354 (0x3c9129b2)
        Signature Algorithm: sha256WithRSAEncryption
        Issuer: CN = highway-test.example.com CA
        Validity
            Not Before: Apr  5 19:36:57 2021 GMT
            Not After : May  6 05:36:57 2021 GMT
        Subject: CN = highway-test.example.com CA
        Subject Public Key Info:
            Public Key Algorithm: rsaEncryption
                Public-Key: (3072 bit)
                Modulus:
                    00:b4:7b:27:42:49:9f:ed:85:47:74:ff:f6:50:cd:
                    5d:22:1a:64:38:22:f8:09:d2:d6:f3:60:d8:98:7f:
                    e5:84:52:1e:d9:ce:96:b4:dc:a6:43:74:67:27:d9:
                    9d:42:7d:bf:1a:43:92:9b:d1:dd:34:9b:41:d2:e3:
                    d5:59:b3:40:fc:b3:c9:e1:58:84:3f:87:f7:06:45:
                    25:26:4c:bf:a1:45:72:a0:0a:5b:86:41:d7:8e:be:
                    d3:38:b5:aa:66:69:bd:3a:fd:e9:b5:b8:a2:79:c4:
                    f0:a5:3c:9e:91:94:32:1e:9c:b0:7f:25:46:5b:76:
                    1d:86:23:85:b0:62:45:5c:a8:6f:fb:c5:26:e1:dd:
                    a8:f2:68:ab:c5:8c:b4:58:b4:2e:96:49:fa:fe:d2:
                    ea:a5:11:68:c2:8d:f4:58:ab:30:bd:dd:1b:29:97:
                    00:18:6f:59:40:9c:3a:2a:e4:96:25:bb:12:f4:1a:
                    11:72:6d:31:f6:b4:e1:cc:d8:9a:0c:aa:a8:aa:a4:
                    64:e3:f1:06:1c:c0:09:df:62:ba:04:cb:70:b0:c4:
                    f7:ca:35:22:ea:a9:c7:52:e1:ce:27:fb:6c:52:39:
                    b7:22:b3:5d:97:cb:0a:9f:75:a3:af:16:ef:e6:b2:
                    1b:6a:c3:0b:1d:15:fd:b8:d8:e7:8a:f6:f4:99:1c:
                    23:97:4b:80:e9:79:a3:85:16:f8:dd:bd:77:ef:3a:
                    3c:8e:e7:75:56:67:36:3a:dd:42:7b:84:2f:64:2f:
                    13:0e:fa:b0:3b:11:13:7e:ae:78:a6:2f:46:dd:4b:
                    11:88:e4:7b:19:ab:21:2d:1f:34:ba:61:cd:51:84:
                    a5:ec:6a:c1:90:20:70:e3:aa:f4:01:fd:0c:6e:cd:
                    04:47:99:31:70:79:6c:af:41:78:c1:04:2a:43:78:
                    84:8a:fe:c3:3d:f2:41:c8:2a:a1:10:e0:b7:b4:4f:
                    4e:e6:26:79:ac:49:64:cf:57:1e:2e:e3:2f:58:bd:
                    6f:30:00:67:d7:8b:d6:13:60:bf
                Exponent: 65537 (0x10001)
        X509v3 extensions:
            X509v3 Basic Constraints: critical
                CA:TRUE
            X509v3 Key Usage: critical
                Certificate Sign, CRL Sign
            X509v3 Subject Key Identifier: 
                33:12:45:B7:1B:10:BE:F3:CB:64:E5:4C:50:80:7C:9D:88:65:74:40
            X509v3 Authority Key Identifier: 
                33:12:45:B7:1B:10:BE:F3:CB:64:E5:4C:50:80:7C:9D:88:65:74:40
    Signature Algorithm: sha256WithRSAEncryption
    Signature Value:
        05:37:28:85:37:39:71:87:ec:5c:f0:51:19:55:4a:b7:e0:2a:
        e6:61:30:d4:e2:2b:ad:7a:db:12:fc:8a:a6:6e:15:82:80:10:
        fa:5d:67:60:e8:54:14:e3:89:d6:4e:60:89:98:5b:ab:fe:32:
        26:aa:02:35:68:4e:c6:2e:ce:08:36:d1:ea:a0:97:3d:76:38:
        6e:9d:4b:6f:33:d2:fa:c2:7e:b0:59:bc:75:97:17:d1:1b:c5:
        c4:58:ae:7b:7e:87:e5:87:2b:8b:6b:10:16:70:7c:c8:65:c7:
        d0:62:5d:f3:b5:06:af:03:8b:32:dd:88:f0:07:2b:5d:61:58:
        61:35:54:a6:ce:95:81:a2:6e:fa:b5:aa:25:e1:41:53:9d:e7:
        4b:7e:93:88:79:6b:dd:a3:6e:9a:0d:bd:85:b4:2d:66:b9:cc:
        01:13:f1:b5:d5:91:cc:86:5e:a7:c8:4a:8f:4d:9d:f8:17:31:
        32:7d:50:d5:c2:79:a0:41:a0:69:83:33:16:14:35:26:10:3b:
        23:eb:60:d9:28:68:99:d5:55:61:89:b5:35:5d:8b:fe:b1:96:
        32:69:3e:8b:c2:a2:4e:e1:d8:76:04:3c:87:91:5d:66:9e:81:
        a5:bf:18:2e:3e:39:da:4f:68:57:46:d2:1d:aa:81:51:3b:33:
        72:da:e9:7d:12:b6:a1:fc:c7:1d:c1:9c:bd:92:e8:1b:d2:06:
        e8:0b:82:2a:4f:23:5a:7a:fa:7b:86:a0:d7:c1:46:e7:04:47:
        77:11:cd:da:7c:50:32:d2:6f:fd:1e:0a:df:cf:b1:20:d2:86:
        ce:40:5a:27:61:49:2f:71:f5:04:ac:eb:c6:03:70:a4:70:13:
        4a:af:41:35:83:dc:55:c0:29:7f:12:4f:d0:f1:bb:f7:61:4a:
        9f:8d:61:b0:5e:89:46:49:e3:27:8b:42:82:5e:af:14:d5:d9:
        91:69:3d:af:11:70:5b:a3:92:3b:e3:c8:2a:a4:38:e5:88:f2:
        6f:09:f4:e5:04:3b
-----BEGIN CERTIFICATE-----
MIIELTCCApWgAwIBAgIEPJEpsjANBgkqhkiG9w0BAQsFADAmMSQwIgYDVQQDDBto
aWdod2F5LXRlc3QuZXhhbXBsZS5jb20gQ0EwHhcNMjEwNDA1MTkzNjU3WhcNMjEw
NTA2MDUzNjU3WjAmMSQwIgYDVQQDDBtoaWdod2F5LXRlc3QuZXhhbXBsZS5jb20g
Q0EwggGiMA0GCSqGSIb3DQEBAQUAA4IBjwAwggGKAoIBgQC0eydCSZ/thUd0//ZQ
zV0iGmQ4IvgJ0tbzYNiYf+WEUh7Zzpa03KZDdGcn2Z1Cfb8aQ5Kb0d00m0HS49VZ
s0D8s8nhWIQ/h/cGRSUmTL+hRXKgCluGQdeOvtM4tapmab06/em1uKJ5xPClPJ6R
lDIenLB/JUZbdh2GI4WwYkVcqG/7xSbh3ajyaKvFjLRYtC6WSfr+0uqlEWjCjfRY
qzC93RsplwAYb1lAnDoq5JYluxL0GhFybTH2tOHM2JoMqqiqpGTj8QYcwAnfYroE
y3CwxPfKNSLqqcdS4c4n+2xSObcis12XywqfdaOvFu/mshtqwwsdFf242OeK9vSZ
HCOXS4DpeaOFFvjdvXfvOjyO53VWZzY63UJ7hC9kLxMO+rA7ERN+rnimL0bdSxGI
5HsZqyEtHzS6Yc1RhKXsasGQIHDjqvQB/QxuzQRHmTFweWyvQXjBBCpDeISK/sM9
8kHIKqEQ4Le0T07mJnmsSWTPVx4u4y9YvW8wAGfXi9YTYL8CAwEAAaNjMGEwDwYD
VR0TAQH/BAUwAwEB/zAOBgNVHQ8BAf8EBAMCAQYwHQYDVR0OBBYEFDMSRbcbEL7z
y2TlTFCAfJ2IZXRAMB8GA1UdIwQYMBaAFDMSRbcbEL7zy2TlTFCAfJ2IZXRAMA0G
CSqGSIb3DQEBCwUAA4IBgQAFNyiFNzlxh+xc8FEZVUq34CrmYTDU4iutetsS/Iqm
bhWCgBD6XWdg6FQU44nWTmCJmFur/jImqgI1aE7GLs4INtHqoJc9djhunUtvM9L6
wn6wWbx1lxfRG8XEWK57foflhyuLaxAWcHzIZcfQYl3ztQavA4sy3YjwBytdYVhh
NVSmzpWBom76taol4UFTnedLfpOIeWvdo26aDb2FtC1mucwBE/G11ZHMhl6nyEqP
TZ34FzEyfVDVwnmgQaBpgzMWFDUmEDsj62DZKGiZ1VVhibU1XYv+sZYyaT6LwqJO
4dh2BDyHkV1mnoGlvxguPjnaT2hXRtIdqoFROzNy2ul9Erah/McdwZy9kugb0gbo
C4IqTyNaevp7hqDXwUbnBEd3Ec3afFAy0m/9Hgrfz7Eg0obOQFonYUkvcfUErOvG
A3CkcBNKr0E1g9xVwCl/Ek/Q8bv3YUqfjWGwXolGSeMni0KCXq8U1dmRaT2vEXBb
o5I748gqpDjliPJvCfTlBDs=
-----END CERTIFICATE-----
